target datalayout = "e-m:e-p270:32:32-p271:32:32-p272:64:64-i64:64-i128:128-f80:128-n8:16:32:64-S128"
target triple = "x86_64-pc-linux-gnu"

%struct.mbedtls_mpi = type { ptr, i16, i16 }

; Function Attrs: nounwind uwtable
define hidden i32 @mbedtls_mpi_grow(ptr noundef %0, i64 noundef %1) #0 {
  %3 = alloca i32, align 4
  %4 = alloca ptr, align 8
  %5 = alloca i64, align 8
  %6 = alloca ptr, align 8
  %7 = alloca i32, align 4
  store ptr %0, ptr %4, align 8, !tbaa !3
  store i64 %1, ptr %5, align 8, !tbaa !15
  call void @llvm.lifetime.start.p0(i64 8, ptr %6) #9
  %8 = load i64, ptr %5, align 8, !tbaa !15
  %9 = icmp ugt i64 %8, 10000
  br i1 %9, label %10, label %11

10:                                               ; preds = %2
  store i32 -16, ptr %3, align 4
  store i32 1, ptr %7, align 4
  br label %55

11:                                               ; preds = %2
  %12 = load ptr, ptr %4, align 8, !tbaa !3
  %13 = getelementptr inbounds nuw %struct.mbedtls_mpi, ptr %12, i32 0, i32 2
  %14 = load i16, ptr %13, align 2, !tbaa !10
  %15 = zext i16 %14 to i64
  %16 = load i64, ptr %5, align 8, !tbaa !15
  %17 = icmp ult i64 %15, %16
  br i1 %17, label %18, label %54

18:                                               ; preds = %11
  %19 = load i64, ptr %5, align 8, !tbaa !15
  %20 = call noalias ptr @calloc(i64 noundef %19, i64 noundef 8) #10
  store ptr %20, ptr %6, align 8, !tbaa !25
  %21 = icmp eq ptr %20, null
  br i1 %21, label %22, label %23

22:                                               ; preds = %18
  store i32 -16, ptr %3, align 4
  store i32 1, ptr %7, align 4
  br label %55

23:                                               ; preds = %18
  %24 = load ptr, ptr %4, align 8, !tbaa !3
  %25 = getelementptr inbounds nuw %struct.mbedtls_mpi, ptr %24, i32 0, i32 0
  %26 = load ptr, ptr %25, align 8, !tbaa !17
  %27 = icmp ne ptr %26, null
  br i1 %27, label %28, label %46

28:                                               ; preds = %23
  %29 = load ptr, ptr %6, align 8, !tbaa !25
  %30 = load ptr, ptr %4, align 8, !tbaa !3
  %31 = getelementptr inbounds nuw %struct.mbedtls_mpi, ptr %30, i32 0, i32 0
  %32 = load ptr, ptr %31, align 8, !tbaa !17
  %33 = load ptr, ptr %4, align 8, !tbaa !3
  %34 = getelementptr inbounds nuw %struct.mbedtls_mpi, ptr %33, i32 0, i32 2
  %35 = load i16, ptr %34, align 2, !tbaa !10
  %36 = zext i16 %35 to i64
  %37 = mul i64 %36, 8
  call void @llvm.memcpy.p0.p0.i64(ptr align 8 %29, ptr align 8 %32, i64 %37, i1 false)
  %38 = load ptr, ptr %4, align 8, !tbaa !3
  %39 = getelementptr inbounds nuw %struct.mbedtls_mpi, ptr %38, i32 0, i32 0
  %40 = load ptr, ptr %39, align 8, !tbaa !17
  %41 = load ptr, ptr %4, align 8, !tbaa !3
  %42 = getelementptr inbounds nuw %struct.mbedtls_mpi, ptr %41, i32 0, i32 2
  %43 = load i16, ptr %42, align 2, !tbaa !10
  %44 = zext i16 %43 to i64
  %45 = mul i64 8, %44
  call void @mbedtls_zeroize_and_free(ptr noundef %40, i64 noundef %45)
  br label %46

46:                                               ; preds = %28, %23
  %47 = load i64, ptr %5, align 8, !tbaa !15
  %48 = trunc i64 %47 to i16
  %49 = load ptr, ptr %4, align 8, !tbaa !3
  %50 = getelementptr inbounds nuw %struct.mbedtls_mpi, ptr %49, i32 0, i32 2
  store i16 %48, ptr %50, align 2, !tbaa !10
  %51 = load ptr, ptr %6, align 8, !tbaa !25
  %52 = load ptr, ptr %4, align 8, !tbaa !3
  %53 = getelementptr inbounds nuw %struct.mbedtls_mpi, ptr %52, i32 0, i32 0
  store ptr %51, ptr %53, align 8, !tbaa !17
  br label %54

54:                                               ; preds = %46, %11
  store i32 0, ptr %3, align 4
  store i32 1, ptr %7, align 4
  br label %55

55:                                               ; preds = %54, %22, %10
  call void @llvm.lifetime.end.p0(i64 8, ptr %6) #9
  %56 = load i32, ptr %3, align 4
  ret i32 %56
}