; Function Attrs: nounwind uwtable
define hidden range(i32 -16, 1) i32 @mbedtls_mpi_grow(ptr noundef captures(none) %0, i64 noundef %1) local_unnamed_addr #0 {
  %3 = icmp ugt i64 %1, 10000
  br i1 %3, label %18, label %4

4:                                                ; preds = %2
  %5 = getelementptr inbounds nuw i8, ptr %0, i64 10
  %6 = load i16, ptr %5, align 2, !tbaa !3
  %7 = zext i16 %6 to i64
  %8 = icmp samesign ugt i64 %1, %7
  br i1 %8, label %9, label %18

9:                                                ; preds = %4
  %10 = tail call noalias ptr @calloc(i64 noundef %1, i64 noundef 8) #17
  %11 = icmp eq ptr %10, null
  br i1 %11, label %18, label %12

12:                                               ; preds = %9
  %13 = load ptr, ptr %0, align 8, !tbaa !12
  %.not = icmp eq ptr %13, null
  br i1 %.not, label %16, label %14

14:                                               ; preds = %12
  %15 = shl nuw nsw i64 %7, 3
  tail call void @llvm.memcpy.p0.p0.i64(ptr nonnull align 8 %10, ptr nonnull align 8 %13, i64 %15, i1 false)
  tail call void @mbedtls_zeroize_and_free(ptr noundef nonnull %13, i64 noundef %15) #16
  br label %16

16:                                               ; preds = %14, %12
  %17 = trunc nuw nsw i64 %1 to i16
  store i16 %17, ptr %5, align 2, !tbaa !3
  store ptr %10, ptr %0, align 8, !tbaa !12
  br label %18

18:                                               ; preds = %4, %16, %9, %2
  %.0 = phi i32 [ -16, %2 ], [ -16, %9 ], [ 0, %16 ], [ 0, %4 ]
  ret i32 %.0
}